; ModuleID = 'bench/nuttx/original/task_startup.c.ll'
source_filename = "bench/nuttx/original/task_startup.c.ll"
target datalayout = "e-m:e-p270:32:32-p271:32:32-p272:64:64-i64:64-i128:128-f80:128-n8:16:32:64-S128"
target triple = "x86_64-pc-linux-gnu"

; Function Attrs: noreturn nounwind uwtable
define void @nxtask_startup(ptr noundef readonly captures(none) %0, i32 noundef %1, ptr noundef %2) local_unnamed_addr #0 {
  tail call void @lib_cxx_initialize() #3
  %4 = tail call i32 %0(i32 noundef %1, ptr noundef %2) #3
  tail call void @exit(i32 noundef %4) #4
  unreachable
}

declare void @lib_cxx_initialize() local_unnamed_addr #1

; Function Attrs: nofree noreturn
declare void @exit(i32 noundef) local_unnamed_addr #2


!llvm.module.flags = !{!0, !1, !2, !3, !4, !5}

!0 = !{i32 7, !"Dwarf Version", i32 5}
!1 = !{i32 2, !"Debug Info Version", i32 3}
!2 = !{i32 1, !"wchar_size", i32 4}
!3 = !{i32 8, !"PIC Level", i32 2}
!4 = !{i32 7, !"uwtable", i32 2}
!5 = !{i32 7, !"frame-pointer", i32 2}
